ccopy_reg
_reconstructor
p0
(ctrajectory_msgs.msg._JointTrajectory
JointTrajectory
p1
c__builtin__
object
p2
Ntp3
Rp4
(lp5
g0
(cstd_msgs.msg._Header
Header
p6
g2
Ntp7
Rp8
(lp9
I0
ag0
(croslib.rostime
Time
p10
g2
Ntp11
Rp12
(lp13
I0
aI0
abaS''
p14
aba(lp15
S'r_shoulder_pan_joint'
p16
aS'r_shoulder_lift_joint'
p17
aa(lp18
g0
(ctrajectory_msgs.msg._JointTrajectoryPoint
JointTrajectoryPoint
p19
g2
Ntp20
Rp21
(lp22
(lp23
F0.0
aF0.0
aa(lp24
F0.0
aF0.0
aa(lp25
ag0
(crospy.rostime
Duration
p26
g2
Ntp27
Rp28
(lp29
I0
aI0
ababag0
(g19
g2
Ntp30
Rp31
(lp32
(lp33
F0.5
aF0.2
aa(lp34
F0.0
aF0.0
aa(lp35
ag0
(g26
g2
Ntp36
Rp37
(lp38
I1
aI0
ababag0
(g19
g2
Ntp39
Rp40
(lp41
(lp42
F-1.5
aF-0.5
aa(lp43
F0.0
aF0.0
aa(lp44
ag0
(g26
g2
Ntp45
Rp46
(lp47
I2
aI0
ababaab.